target datalayout = "e-m:e-p270:32:32-p271:32:32-p272:64:64-i64:64-i128:128-f80:128-n8:16:32:64-S128"
target triple = "x86_64-pc-linux-gnu"

%struct.pw_st = type { i32, ptr }

@justprint = internal global i32 0, align 4
@.str.23 = private unnamed_addr constant [31 x i8] c"../openssl/test/bioprinttest.c\00", align 1
@.str.27 = private unnamed_addr constant [7 x i8] c"    {\0A\00", align 1
@.str.28 = private unnamed_addr constant [38 x i8] c"dofptest(i, t++, 0.0, pwp->w, pwp->p)\00", align 1
@.str.29 = private unnamed_addr constant [39 x i8] c"dofptest(i, t++, 0.67, pwp->w, pwp->p)\00", align 1
@.str.30 = private unnamed_addr constant [39 x i8] c"dofptest(i, t++, frac, pwp->w, pwp->p)\00", align 1
@.str.31 = private unnamed_addr constant [46 x i8] c"dofptest(i, t++, frac / 1000, pwp->w, pwp->p)\00", align 1
@.str.32 = private unnamed_addr constant [47 x i8] c"dofptest(i, t++, frac / 10000, pwp->w, pwp->p)\00", align 1
@.str.33 = private unnamed_addr constant [45 x i8] c"dofptest(i, t++, 6.0 + frac, pwp->w, pwp->p)\00", align 1
@.str.34 = private unnamed_addr constant [46 x i8] c"dofptest(i, t++, 66.0 + frac, pwp->w, pwp->p)\00", align 1
@.str.35 = private unnamed_addr constant [47 x i8] c"dofptest(i, t++, 666.0 + frac, pwp->w, pwp->p)\00", align 1
@.str.36 = private unnamed_addr constant [48 x i8] c"dofptest(i, t++, 6666.0 + frac, pwp->w, pwp->p)\00", align 1
@.str.37 = private unnamed_addr constant [49 x i8] c"dofptest(i, t++, 66666.0 + frac, pwp->w, pwp->p)\00", align 1
@.str.38 = private unnamed_addr constant [8 x i8] c"    },\0A\00", align 1

; Function Attrs: nounwind uwtable
define internal i32 @test_fp(i32 noundef %0) #0 {
  %2 = alloca i32, align 4
  %3 = alloca i32, align 4
  %4 = alloca i32, align 4
  %5 = alloca double, align 8
  %6 = alloca ptr, align 8
  store i32 %0, ptr %2, align 4, !tbaa !4
  call void @llvm.lifetime.start.p0(i64 4, ptr %3) #4
  store i32 0, ptr %3, align 4, !tbaa !4
  call void @llvm.lifetime.start.p0(i64 4, ptr %4) #4
  call void @llvm.lifetime.start.p0(i64 8, ptr %5) #4
  store double 0x3FE5555555555555, ptr %5, align 8, !tbaa !10
  call void @llvm.lifetime.start.p0(i64 8, ptr %6) #4
  %7 = load i32, ptr %2, align 4, !tbaa !4
  %8 = sext i32 %7 to i64
  %9 = getelementptr inbounds [7 x %struct.pw_st], ptr @pw_params, i64 0, i64 %8
  store ptr %9, ptr %6, align 8, !tbaa !12
  %10 = load i32, ptr @justprint, align 4, !tbaa !4
  %11 = icmp ne i32 %10, 0
  br i1 %11, label %12, label %14

12:                                               ; preds = %1
  %13 = call i32 (ptr, ...) @printf(ptr noundef @.str.27)
  br label %14

14:                                               ; preds = %12, %1
  %15 = load i32, ptr %2, align 4, !tbaa !4
  %16 = load i32, ptr %3, align 4, !tbaa !4
  %17 = add nsw i32 %16, 1
  store i32 %17, ptr %3, align 4, !tbaa !4
  %18 = load ptr, ptr %6, align 8, !tbaa !12
  %19 = getelementptr inbounds nuw %struct.pw_st, ptr %18, i32 0, i32 1
  %20 = load ptr, ptr %19, align 8, !tbaa !15
  %21 = load ptr, ptr %6, align 8, !tbaa !12
  %22 = getelementptr inbounds nuw %struct.pw_st, ptr %21, i32 0, i32 0
  %23 = load i32, ptr %22, align 8, !tbaa !18
  %24 = call i32 @dofptest(i32 noundef %15, i32 noundef %16, double noundef 0.000000e+00, ptr noundef %20, i32 noundef %23)
  %25 = icmp ne i32 %24, 0
  %26 = zext i1 %25 to i32
  %27 = call i32 @test_true(ptr noundef @.str.23, i32 noundef 228, ptr noundef @.str.28, i32 noundef %26)
  %28 = icmp ne i32 %27, 0
  br i1 %28, label %29, label %164

29:                                               ; preds = %14
  %30 = load i32, ptr %2, align 4, !tbaa !4
  %31 = load i32, ptr %3, align 4, !tbaa !4
  %32 = add nsw i32 %31, 1
  store i32 %32, ptr %3, align 4, !tbaa !4
  %33 = load ptr, ptr %6, align 8, !tbaa !12
  %34 = getelementptr inbounds nuw %struct.pw_st, ptr %33, i32 0, i32 1
  %35 = load ptr, ptr %34, align 8, !tbaa !15
  %36 = load ptr, ptr %6, align 8, !tbaa !12
  %37 = getelementptr inbounds nuw %struct.pw_st, ptr %36, i32 0, i32 0
  %38 = load i32, ptr %37, align 8, !tbaa !18
  %39 = call i32 @dofptest(i32 noundef %30, i32 noundef %31, double noundef 6.700000e-01, ptr noundef %35, i32 noundef %38)
  %40 = icmp ne i32 %39, 0
  %41 = zext i1 %40 to i32
  %42 = call i32 @test_true(ptr noundef @.str.23, i32 noundef 229, ptr noundef @.str.29, i32 noundef %41)
  %43 = icmp ne i32 %42, 0
  br i1 %43, label %44, label %164

44:                                               ; preds = %29
  %45 = load i32, ptr %2, align 4, !tbaa !4
  %46 = load i32, ptr %3, align 4, !tbaa !4
  %47 = add nsw i32 %46, 1
  store i32 %47, ptr %3, align 4, !tbaa !4
  %48 = load ptr, ptr %6, align 8, !tbaa !12
  %49 = getelementptr inbounds nuw %struct.pw_st, ptr %48, i32 0, i32 1
  %50 = load ptr, ptr %49, align 8, !tbaa !15
  %51 = load ptr, ptr %6, align 8, !tbaa !12
  %52 = getelementptr inbounds nuw %struct.pw_st, ptr %51, i32 0, i32 0
  %53 = load i32, ptr %52, align 8, !tbaa !18
  %54 = call i32 @dofptest(i32 noundef %45, i32 noundef %46, double noundef 0x3FE5555555555555, ptr noundef %50, i32 noundef %53)
  %55 = icmp ne i32 %54, 0
  %56 = zext i1 %55 to i32
  %57 = call i32 @test_true(ptr noundef @.str.23, i32 noundef 230, ptr noundef @.str.30, i32 noundef %56)
  %58 = icmp ne i32 %57, 0
  br i1 %58, label %59, label %164

59:                                               ; preds = %44
  %60 = load i32, ptr %2, align 4, !tbaa !4
  %61 = load i32, ptr %3, align 4, !tbaa !4
  %62 = add nsw i32 %61, 1
  store i32 %62, ptr %3, align 4, !tbaa !4
  %63 = load ptr, ptr %6, align 8, !tbaa !12
  %64 = getelementptr inbounds nuw %struct.pw_st, ptr %63, i32 0, i32 1
  %65 = load ptr, ptr %64, align 8, !tbaa !15
  %66 = load ptr, ptr %6, align 8, !tbaa !12
  %67 = getelementptr inbounds nuw %struct.pw_st, ptr %66, i32 0, i32 0
  %68 = load i32, ptr %67, align 8, !tbaa !18
  %69 = call i32 @dofptest(i32 noundef %60, i32 noundef %61, double noundef 0x3F45D867C3ECE2A5, ptr noundef %65, i32 noundef %68)
  %70 = icmp ne i32 %69, 0
  %71 = zext i1 %70 to i32
  %72 = call i32 @test_true(ptr noundef @.str.23, i32 noundef 231, ptr noundef @.str.31, i32 noundef %71)
  %73 = icmp ne i32 %72, 0
  br i1 %73, label %74, label %164

74:                                               ; preds = %59
  %75 = load i32, ptr %2, align 4, !tbaa !4
  %76 = load i32, ptr %3, align 4, !tbaa !4
  %77 = add nsw i32 %76, 1
  store i32 %77, ptr %3, align 4, !tbaa !4
  %78 = load ptr, ptr %6, align 8, !tbaa !12
  %79 = getelementptr inbounds nuw %struct.pw_st, ptr %78, i32 0, i32 1
  %80 = load ptr, ptr %79, align 8, !tbaa !15
  %81 = load ptr, ptr %6, align 8, !tbaa !12
  %82 = getelementptr inbounds nuw %struct.pw_st, ptr %81, i32 0, i32 0
  %83 = load i32, ptr %82, align 8, !tbaa !18
  %84 = call i32 @dofptest(i32 noundef %75, i32 noundef %76, double noundef 0x3F1179EC9CBD821D, ptr noundef %80, i32 noundef %83)
  %85 = icmp ne i32 %84, 0
  %86 = zext i1 %85 to i32
  %87 = call i32 @test_true(ptr noundef @.str.23, i32 noundef 232, ptr noundef @.str.32, i32 noundef %86)
  %88 = icmp ne i32 %87, 0
  br i1 %88, label %89, label %164

89:                                               ; preds = %74
  %90 = load i32, ptr %2, align 4, !tbaa !4
  %91 = load i32, ptr %3, align 4, !tbaa !4
  %92 = add nsw i32 %91, 1
  store i32 %92, ptr %3, align 4, !tbaa !4
  %93 = load ptr, ptr %6, align 8, !tbaa !12
  %94 = getelementptr inbounds nuw %struct.pw_st, ptr %93, i32 0, i32 1
  %95 = load ptr, ptr %94, align 8, !tbaa !15
  %96 = load ptr, ptr %6, align 8, !tbaa !12
  %97 = getelementptr inbounds nuw %struct.pw_st, ptr %96, i32 0, i32 0
  %98 = load i32, ptr %97, align 8, !tbaa !18
  %99 = call i32 @dofptest(i32 noundef %90, i32 noundef %91, double noundef 0x401AAAAAAAAAAAAB, ptr noundef %95, i32 noundef %98)
  %100 = icmp ne i32 %99, 0
  %101 = zext i1 %100 to i32
  %102 = call i32 @test_true(ptr noundef @.str.23, i32 noundef 233, ptr noundef @.str.33, i32 noundef %101)
  %103 = icmp ne i32 %102, 0
  br i1 %103, label %104, label %164

104:                                              ; preds = %89
  %105 = load i32, ptr %2, align 4, !tbaa !4
  %106 = load i32, ptr %3, align 4, !tbaa !4
  %107 = add nsw i32 %106, 1
  store i32 %107, ptr %3, align 4, !tbaa !4
  %108 = load ptr, ptr %6, align 8, !tbaa !12
  %109 = getelementptr inbounds nuw %struct.pw_st, ptr %108, i32 0, i32 1
  %110 = load ptr, ptr %109, align 8, !tbaa !15
  %111 = load ptr, ptr %6, align 8, !tbaa !12
  %112 = getelementptr inbounds nuw %struct.pw_st, ptr %111, i32 0, i32 0
  %113 = load i32, ptr %112, align 8, !tbaa !18
  %114 = call i32 @dofptest(i32 noundef %105, i32 noundef %106, double noundef 0x4050AAAAAAAAAAAB, ptr noundef %110, i32 noundef %113)
  %115 = icmp ne i32 %114, 0
  %116 = zext i1 %115 to i32
  %117 = call i32 @test_true(ptr noundef @.str.23, i32 noundef 234, ptr noundef @.str.34, i32 noundef %116)
  %118 = icmp ne i32 %117, 0
  br i1 %118, label %119, label %164

119:                                              ; preds = %104
  %120 = load i32, ptr %2, align 4, !tbaa !4
  %121 = load i32, ptr %3, align 4, !tbaa !4
  %122 = add nsw i32 %121, 1
  store i32 %122, ptr %3, align 4, !tbaa !4
  %123 = load ptr, ptr %6, align 8, !tbaa !12
  %124 = getelementptr inbounds nuw %struct.pw_st, ptr %123, i32 0, i32 1
  %125 = load ptr, ptr %124, align 8, !tbaa !15
  %126 = load ptr, ptr %6, align 8, !tbaa !12
  %127 = getelementptr inbounds nuw %struct.pw_st, ptr %126, i32 0, i32 0
  %128 = load i32, ptr %127, align 8, !tbaa !18
  %129 = call i32 @dofptest(i32 noundef %120, i32 noundef %121, double noundef 0x4084D55555555555, ptr noundef %125, i32 noundef %128)
  %130 = icmp ne i32 %129, 0
  %131 = zext i1 %130 to i32
  %132 = call i32 @test_true(ptr noundef @.str.23, i32 noundef 235, ptr noundef @.str.35, i32 noundef %131)
  %133 = icmp ne i32 %132, 0
  br i1 %133, label %134, label %164

134:                                              ; preds = %119
  %135 = load i32, ptr %2, align 4, !tbaa !4
  %136 = load i32, ptr %3, align 4, !tbaa !4
  %137 = add nsw i32 %136, 1
  store i32 %137, ptr %3, align 4, !tbaa !4
  %138 = load ptr, ptr %6, align 8, !tbaa !12
  %139 = getelementptr inbounds nuw %struct.pw_st, ptr %138, i32 0, i32 1
  %140 = load ptr, ptr %139, align 8, !tbaa !15
  %141 = load ptr, ptr %6, align 8, !tbaa !12
  %142 = getelementptr inbounds nuw %struct.pw_st, ptr %141, i32 0, i32 0
  %143 = load i32, ptr %142, align 8, !tbaa !18
  %144 = call i32 @dofptest(i32 noundef %135, i32 noundef %136, double noundef 0x40BA0AAAAAAAAAAB, ptr noundef %140, i32 noundef %143)
  %145 = icmp ne i32 %144, 0
  %146 = zext i1 %145 to i32
  %147 = call i32 @test_true(ptr noundef @.str.23, i32 noundef 236, ptr noundef @.str.36, i32 noundef %146)
  %148 = icmp ne i32 %147, 0
  br i1 %148, label %149, label %164

149:                                              ; preds = %134
  %150 = load i32, ptr %2, align 4, !tbaa !4
  %151 = load i32, ptr %3, align 4, !tbaa !4
  %152 = add nsw i32 %151, 1
  store i32 %152, ptr %3, align 4, !tbaa !4
  %153 = load ptr, ptr %6, align 8, !tbaa !12
  %154 = getelementptr inbounds nuw %struct.pw_st, ptr %153, i32 0, i32 1
  %155 = load ptr, ptr %154, align 8, !tbaa !15
  %156 = load ptr, ptr %6, align 8, !tbaa !12
  %157 = getelementptr inbounds nuw %struct.pw_st, ptr %156, i32 0, i32 0
  %158 = load i32, ptr %157, align 8, !tbaa !18
  %159 = call i32 @dofptest(i32 noundef %150, i32 noundef %151, double noundef 0x40F046AAAAAAAAAB, ptr noundef %155, i32 noundef %158)
  %160 = icmp ne i32 %159, 0
  %161 = zext i1 %160 to i32
  %162 = call i32 @test_true(ptr noundef @.str.23, i32 noundef 237, ptr noundef @.str.37, i32 noundef %161)
  %163 = icmp ne i32 %162, 0
  br label %164

164:                                              ; preds = %149, %134, %119, %104, %89, %74, %59, %44, %29, %14
  %165 = phi i1 [ false, %134 ], [ false, %119 ], [ false, %104 ], [ false, %89 ], [ false, %74 ], [ false, %59 ], [ false, %44 ], [ false, %29 ], [ false, %14 ], [ %163, %149 ]
  %166 = zext i1 %165 to i32
  store i32 %166, ptr %4, align 4, !tbaa !4
  %167 = load i32, ptr @justprint, align 4, !tbaa !4
  %168 = icmp ne i32 %167, 0
  br i1 %168, label %169, label %171

169:                                              ; preds = %164
  %170 = call i32 (ptr, ...) @printf(ptr noundef @.str.38)
  br label %171

171:                                              ; preds = %169, %164
  %172 = load i32, ptr %4, align 4, !tbaa !4
  call void @llvm.lifetime.end.p0(i64 8, ptr %6) #4
  call void @llvm.lifetime.end.p0(i64 8, ptr %5) #4
  call void @llvm.lifetime.end.p0(i64 4, ptr %4) #4
  call void @llvm.lifetime.end.p0(i64 4, ptr %3) #4
  ret i32 %172
}