; Function Attrs: nounwind uwtable
define internal range(i32 0, 2) i32 @test_fp(i32 noundef %0) #1 {
  %2 = sext i32 %0 to i64
  %3 = getelementptr inbounds [7 x %struct.pw_st], ptr @pw_params, i64 0, i64 %2
  %.b41 = load i1, ptr @justprint, align 4
  br i1 %.b41, label %4, label %5

4:                                                ; preds = %1
  %puts = tail call i32 @puts(ptr nonnull dereferenceable(1) @str)
  br label %5

5:                                                ; preds = %4, %1
  %6 = getelementptr inbounds nuw i8, ptr %3, i64 8
  %7 = load ptr, ptr %6, align 8, !tbaa !6
  %8 = load i32, ptr %3, align 16, !tbaa !13
  %9 = tail call fastcc i32 @dofptest(i32 noundef %0, i32 noundef 0, double noundef 0.000000e+00, ptr noundef %7, i32 noundef %8)
  %10 = tail call i32 @test_true(ptr noundef nonnull @.str.23, i32 noundef 228, ptr noundef nonnull @.str.28, i32 noundef %9) #9
  %.not = icmp eq i32 %10, 0
  br i1 %.not, label %40, label %11

11:                                               ; preds = %5
  %12 = tail call fastcc i32 @dofptest(i32 noundef %0, i32 noundef 1, double noundef 6.700000e-01, ptr noundef %7, i32 noundef %8)
  %13 = tail call i32 @test_true(ptr noundef nonnull @.str.23, i32 noundef 229, ptr noundef nonnull @.str.29, i32 noundef %12) #9
  %.not42 = icmp eq i32 %13, 0
  br i1 %.not42, label %40, label %14

14:                                               ; preds = %11
  %15 = tail call fastcc i32 @dofptest(i32 noundef %0, i32 noundef 2, double noundef 0x3FE5555555555555, ptr noundef %7, i32 noundef %8)
  %16 = tail call i32 @test_true(ptr noundef nonnull @.str.23, i32 noundef 230, ptr noundef nonnull @.str.30, i32 noundef %15) #9
  %.not43 = icmp eq i32 %16, 0
  br i1 %.not43, label %40, label %17

17:                                               ; preds = %14
  %18 = tail call fastcc i32 @dofptest(i32 noundef %0, i32 noundef 3, double noundef 0x3F45D867C3ECE2A5, ptr noundef %7, i32 noundef %8)
  %19 = tail call i32 @test_true(ptr noundef nonnull @.str.23, i32 noundef 231, ptr noundef nonnull @.str.31, i32 noundef %18) #9
  %.not44 = icmp eq i32 %19, 0
  br i1 %.not44, label %40, label %20

20:                                               ; preds = %17
  %21 = tail call fastcc i32 @dofptest(i32 noundef %0, i32 noundef 4, double noundef 0x3F1179EC9CBD821D, ptr noundef %7, i32 noundef %8)
  %22 = tail call i32 @test_true(ptr noundef nonnull @.str.23, i32 noundef 232, ptr noundef nonnull @.str.32, i32 noundef %21) #9
  %.not45 = icmp eq i32 %22, 0
  br i1 %.not45, label %40, label %23

23:                                               ; preds = %20
  %24 = tail call fastcc i32 @dofptest(i32 noundef %0, i32 noundef 5, double noundef 0x401AAAAAAAAAAAAB, ptr noundef %7, i32 noundef %8)
  %25 = tail call i32 @test_true(ptr noundef nonnull @.str.23, i32 noundef 233, ptr noundef nonnull @.str.33, i32 noundef %24) #9
  %.not46 = icmp eq i32 %25, 0
  br i1 %.not46, label %40, label %26

26:                                               ; preds = %23
  %27 = tail call fastcc i32 @dofptest(i32 noundef %0, i32 noundef 6, double noundef 0x4050AAAAAAAAAAAB, ptr noundef %7, i32 noundef %8)
  %28 = tail call i32 @test_true(ptr noundef nonnull @.str.23, i32 noundef 234, ptr noundef nonnull @.str.34, i32 noundef %27) #9
  %.not47 = icmp eq i32 %28, 0
  br i1 %.not47, label %40, label %29

29:                                               ; preds = %26
  %30 = tail call fastcc i32 @dofptest(i32 noundef %0, i32 noundef 7, double noundef 0x4084D55555555555, ptr noundef %7, i32 noundef %8)
  %31 = tail call i32 @test_true(ptr noundef nonnull @.str.23, i32 noundef 235, ptr noundef nonnull @.str.35, i32 noundef %30) #9
  %.not48 = icmp eq i32 %31, 0
  br i1 %.not48, label %40, label %32

32:                                               ; preds = %29
  %33 = tail call fastcc i32 @dofptest(i32 noundef %0, i32 noundef 8, double noundef 0x40BA0AAAAAAAAAAB, ptr noundef %7, i32 noundef %8)
  %34 = tail call i32 @test_true(ptr noundef nonnull @.str.23, i32 noundef 236, ptr noundef nonnull @.str.36, i32 noundef %33) #9
  %.not49 = icmp eq i32 %34, 0
  br i1 %.not49, label %40, label %35

35:                                               ; preds = %32
  %36 = tail call fastcc i32 @dofptest(i32 noundef %0, i32 noundef 9, double noundef 0x40F046AAAAAAAAAB, ptr noundef %7, i32 noundef %8)
  %37 = tail call i32 @test_true(ptr noundef nonnull @.str.23, i32 noundef 237, ptr noundef nonnull @.str.37, i32 noundef %36) #9
  %38 = icmp ne i32 %37, 0
  %39 = zext i1 %38 to i32
  br label %40

40:                                               ; preds = %35, %32, %29, %26, %23, %20, %17, %14, %11, %5
  %41 = phi i32 [ 0, %32 ], [ 0, %29 ], [ 0, %26 ], [ 0, %23 ], [ 0, %20 ], [ 0, %17 ], [ 0, %14 ], [ 0, %11 ], [ 0, %5 ], [ %39, %35 ]
  %.b = load i1, ptr @justprint, align 4
  br i1 %.b, label %42, label %43

42:                                               ; preds = %40
  %puts50 = tail call i32 @puts(ptr nonnull dereferenceable(1) @str.1)
  br label %43

43:                                               ; preds = %42, %40
  ret i32 %41
}